; Function Attrs: mustprogress nounwind uwtable
define dso_local void @_ZN5clang6driver9ToolChain16addSystemIncludeERKN4llvm3opt7ArgListERNS2_11SmallVectorIPKcLj16EEERKNS2_5TwineE(ptr noundef nonnull align 8 dereferenceable(176) %0, ptr noundef nonnull align 8 dereferenceable(144) %1, ptr noundef nonnull align 8 dereferenceable(34) %2) local_unnamed_addr #0 align 2 {
  %4 = alloca %"class.llvm::SmallString.295", align 8
  %5 = tail call noundef i64 @_ZNK4llvm15SmallVectorBaseIjE4sizeEv(ptr noundef nonnull align 8 dereferenceable(16) %1) #25
  %6 = add i64 %5, 1
  %7 = tail call noundef i64 @_ZNK4llvm15SmallVectorBaseIjE8capacityEv(ptr noundef nonnull align 8 dereferenceable(16) %1) #25
  %.not.i.i.i = icmp ugt i64 %6, %7
  br i1 %.not.i.i.i, label %8, label %_ZN4llvm23SmallVectorTemplateBaseIPKcLb1EE9push_backES2_.exit

8:                                                ; preds = %3
  %9 = getelementptr inbounds i8, ptr %1, i64 16
  tail call void @_ZN4llvm15SmallVectorBaseIjE8grow_podEPvmm(ptr noundef nonnull align 8 dereferenceable(16) %1, ptr noundef nonnull %9, i64 noundef %6, i64 noundef 8) #25
  br label %_ZN4llvm23SmallVectorTemplateBaseIPKcLb1EE9push_backES2_.exit

_ZN4llvm23SmallVectorTemplateBaseIPKcLb1EE9push_backES2_.exit: ; preds = %3, %8
  %10 = load ptr, ptr %1, align 8
  %11 = tail call noundef i64 @_ZNK4llvm15SmallVectorBaseIjE4sizeEv(ptr noundef nonnull align 8 dereferenceable(16) %1) #25
  %12 = getelementptr inbounds ptr, ptr %10, i64 %11
  store i64 ptrtoint (ptr @.str.57 to i64), ptr %12, align 1
  %13 = tail call noundef i64 @_ZNK4llvm15SmallVectorBaseIjE4sizeEv(ptr noundef nonnull align 8 dereferenceable(16) %1) #25
  %14 = add i64 %13, 1
  tail call void @_ZN4llvm15SmallVectorBaseIjE8set_sizeEm(ptr noundef nonnull align 8 dereferenceable(16) %1, i64 noundef %14) #25
  call void @llvm.lifetime.start.p0(i64 280, ptr nonnull %4)
  %15 = getelementptr inbounds i8, ptr %4, i64 24
  call void @_ZN4llvm15SmallVectorBaseImEC2EPvm(ptr noundef nonnull align 8 dereferenceable(24) %4, ptr noundef nonnull %15, i64 noundef 256) #25
  %16 = call { ptr, i64 } @_ZNK4llvm5Twine11toStringRefERNS_15SmallVectorImplIcEE(ptr noundef nonnull align 8 dereferenceable(34) %2, ptr noundef nonnull align 8 dereferenceable(24) %4)
  %17 = extractvalue { ptr, i64 } %16, 0
  %18 = extractvalue { ptr, i64 } %16, 1
  %19 = load ptr, ptr %0, align 8
  %20 = getelementptr inbounds i8, ptr %19, i64 16
  %21 = load ptr, ptr %20, align 8
  %22 = call noundef ptr %21(ptr noundef nonnull align 8 dereferenceable(176) %0, ptr %17, i64 %18) #25
  %23 = call noundef i64 @_ZNK4llvm15SmallVectorBaseImE4sizeEv(ptr noundef nonnull align 8 dereferenceable(24) %4) #25
  %24 = load ptr, ptr %4, align 8
  %25 = icmp eq ptr %24, %15
  br i1 %25, label %_ZNK4llvm3opt7ArgList13MakeArgStringERKNS_5TwineE.exit, label %26

26:                                               ; preds = %_ZN4llvm23SmallVectorTemplateBaseIPKcLb1EE9push_backES2_.exit
  call void @free(ptr noundef %24) #25
  br label %_ZNK4llvm3opt7ArgList13MakeArgStringERKNS_5TwineE.exit

_ZNK4llvm3opt7ArgList13MakeArgStringERKNS_5TwineE.exit: ; preds = %_ZN4llvm23SmallVectorTemplateBaseIPKcLb1EE9push_backES2_.exit, %26
  call void @llvm.lifetime.end.p0(i64 280, ptr nonnull %4)
  %27 = call noundef i64 @_ZNK4llvm15SmallVectorBaseIjE4sizeEv(ptr noundef nonnull align 8 dereferenceable(16) %1) #25
  %28 = add i64 %27, 1
  %29 = call noundef i64 @_ZNK4llvm15SmallVectorBaseIjE8capacityEv(ptr noundef nonnull align 8 dereferenceable(16) %1) #25
  %.not.i.i.i4 = icmp ugt i64 %28, %29
  br i1 %.not.i.i.i4, label %30, label %_ZN4llvm23SmallVectorTemplateBaseIPKcLb1EE9push_backES2_.exit5

30:                                               ; preds = %_ZNK4llvm3opt7ArgList13MakeArgStringERKNS_5TwineE.exit
  %31 = getelementptr inbounds i8, ptr %1, i64 16
  call void @_ZN4llvm15SmallVectorBaseIjE8grow_podEPvmm(ptr noundef nonnull align 8 dereferenceable(16) %1, ptr noundef nonnull %31, i64 noundef %28, i64 noundef 8) #25
  br label %_ZN4llvm23SmallVectorTemplateBaseIPKcLb1EE9push_backES2_.exit5

_ZN4llvm23SmallVectorTemplateBaseIPKcLb1EE9push_backES2_.exit5: ; preds = %_ZNK4llvm3opt7ArgList13MakeArgStringERKNS_5TwineE.exit, %30
  %32 = load ptr, ptr %1, align 8
  %33 = call noundef i64 @_ZNK4llvm15SmallVectorBaseIjE4sizeEv(ptr noundef nonnull align 8 dereferenceable(16) %1) #25
  %34 = getelementptr inbounds ptr, ptr %32, i64 %33
  %35 = ptrtoint ptr %22 to i64
  store i64 %35, ptr %34, align 1
  %36 = call noundef i64 @_ZNK4llvm15SmallVectorBaseIjE4sizeEv(ptr noundef nonnull align 8 dereferenceable(16) %1) #25
  %37 = add i64 %36, 1
  call void @_ZN4llvm15SmallVectorBaseIjE8set_sizeEm(ptr noundef nonnull align 8 dereferenceable(16) %1, i64 noundef %37) #25
  ret void
}